; Function Attrs: nounwind uwtable
define void @wolfSSL_FreeArrays(ptr noundef %0) local_unnamed_addr #0 {
  %.not = icmp eq ptr %0, null
  br i1 %.not, label %10, label %2

2:                                                ; preds = %1
  %3 = getelementptr inbounds nuw i8, ptr %0, i64 1045
  %4 = load i8, ptr %3, align 1, !tbaa !147
  %5 = icmp eq i8 %4, 16
  br i1 %5, label %6, label %10

6:                                                ; preds = %2
  %7 = getelementptr inbounds nuw i8, ptr %0, i64 1024
  %8 = load i64, ptr %7, align 8
  %9 = and i64 %8, -274877906945
  store i64 %9, ptr %7, align 8
  tail call void @FreeArrays(ptr noundef nonnull %0, i32 noundef 1) #22
  br label %10

10:                                               ; preds = %6, %2, %1
  ret void
}